target datalayout = "e-m:e-p270:32:32-p271:32:32-p272:64:64-i64:64-i128:128-f80:128-n8:16:32:64-S128"
target triple = "x86_64-pc-linux-gnu"

%"class.base::SharedMemory" = type { i32, i32, i64, ptr, i8, i64 }

; Function Attrs: mustprogress nounwind uwtable
define void @_ZN4base12SharedMemoryC2Ev(ptr noundef nonnull align 8 dereferenceable(40) %0) unnamed_addr #0 align 2 {
  %2 = alloca ptr, align 8
  store ptr %0, ptr %2, align 8, !tbaa !17
  %3 = load ptr, ptr %2, align 8
  %4 = getelementptr inbounds nuw %"class.base::SharedMemory", ptr %3, i32 0, i32 0
  store i32 -1, ptr %4, align 8, !tbaa !19
  %5 = getelementptr inbounds nuw %"class.base::SharedMemory", ptr %3, i32 0, i32 1
  store i32 -1, ptr %5, align 4, !tbaa !22
  %6 = getelementptr inbounds nuw %"class.base::SharedMemory", ptr %3, i32 0, i32 2
  store i64 0, ptr %6, align 8, !tbaa !23
  %7 = getelementptr inbounds nuw %"class.base::SharedMemory", ptr %3, i32 0, i32 3
  store ptr null, ptr %7, align 8, !tbaa !24
  %8 = getelementptr inbounds nuw %"class.base::SharedMemory", ptr %3, i32 0, i32 4
  store i8 0, ptr %8, align 8, !tbaa !25
  %9 = getelementptr inbounds nuw %"class.base::SharedMemory", ptr %3, i32 0, i32 5
  store i64 0, ptr %9, align 8, !tbaa !26
  ret void
}