; Function Attrs: mustprogress nofree norecurse nosync nounwind willreturn memory(argmem: write) uwtable
define void @_ZN4base12SharedMemoryC2Ev(ptr noundef nonnull writeonly align 8 captures(none) dereferenceable(40) initializes((0, 25), (32, 40)) %0) unnamed_addr #0 align 2 {
  store i32 -1, ptr %0, align 8, !tbaa !15
  %2 = getelementptr inbounds nuw i8, ptr %0, i64 4
  store i32 -1, ptr %2, align 4, !tbaa !18
  %3 = getelementptr inbounds nuw i8, ptr %0, i64 8
  %4 = getelementptr inbounds nuw i8, ptr %0, i64 32
  store i64 0, ptr %4, align 8, !tbaa !19
  tail call void @llvm.memset.p0.i64(ptr noundef nonnull align 8 dereferenceable(17) %3, i8 0, i64 17, i1 false)
  ret void
}